; ModuleID = '51/813.c'
source_filename = "51/813.c"
target datalayout = "e-m:e-p270:32:32-p271:32:32-p272:64:64-i64:64-f80:128-n8:16:32:64-S128"
target triple = "x86_64-pc-linux-gnu"

@.str = private unnamed_addr constant [3 x i8] c"%d\00", align 1
@.str.1 = private unnamed_addr constant [3 x i8] c"%s\00", align 1
@.str.2 = private unnamed_addr constant [3 x i8] c"NO\00", align 1
@.str.3 = private unnamed_addr constant [4 x i8] c"%d\0A\00", align 1
@.str.4 = private unnamed_addr constant [4 x i8] c"%s\0A\00", align 1

; Function Attrs: noinline nounwind uwtable
define dso_local void @main() #0 {
  %1 = alloca [400 x i8], align 16
  %2 = alloca [400 x [6 x i8]], align 16
  %3 = alloca i32, align 4
  %4 = alloca i32, align 4
  %5 = alloca i32, align 4
  %6 = alloca i32, align 4
  %7 = alloca i32, align 4
  %8 = alloca i32, align 4
  %9 = alloca i8*, align 8
  %10 = alloca [6 x i8]*, align 8
  store i32 0, i32* %5, align 4
  store i32 1, i32* %7, align 4
  store i32 0, i32* %8, align 4
  %11 = call i32 (i8*, ...) @__isoc99_scanf(i8* getelementptr inbounds ([3 x i8], [3 x i8]* @.str, i64 0, i64 0), i32* %3)
  %12 = getelementptr inbounds [400 x i8], [400 x i8]* %1, i64 0, i64 0
  %13 = call i32 (i8*, ...) @__isoc99_scanf(i8* getelementptr inbounds ([3 x i8], [3 x i8]* @.str.1, i64 0, i64 0), i8* %12)
  %14 = getelementptr inbounds [400 x i8], [400 x i8]* %1, i64 0, i64 0
  %15 = call i64 @strlen(i8* %14) #3
  %16 = trunc i64 %15 to i32
  store i32 %16, i32* %6, align 4
  %17 = getelementptr inbounds [400 x i8], [400 x i8]* %1, i64 0, i64 0
  store i8* %17, i8** %9, align 8
  %18 = getelementptr inbounds [400 x [6 x i8]], [400 x [6 x i8]]* %2, i64 0, i64 0
  store [6 x i8]* %18, [6 x i8]** %10, align 8
  store i32 0, i32* %4, align 4
  br label %19

19:                                               ; preds = %60, %0
  %20 = load i32, i32* %4, align 4
  %21 = load i32, i32* %6, align 4
  %22 = load i32, i32* %3, align 4
  %23 = sub nsw i32 %21, %22
  %24 = add nsw i32 %23, 1
  %25 = icmp slt i32 %20, %24
  br i1 %25, label %26, label %63

26:                                               ; preds = %19
  store i32 0, i32* %5, align 4
  br label %27

27:                                               ; preds = %48, %26
  %28 = load i32, i32* %5, align 4
  %29 = load i32, i32* %3, align 4
  %30 = icmp slt i32 %28, %29
  br i1 %30, label %31, label %51

31:                                               ; preds = %27
  %32 = load i8*, i8** %9, align 8
  %33 = load i32, i32* %4, align 4
  %34 = sext i32 %33 to i64
  %35 = getelementptr inbounds i8, i8* %32, i64 %34
  %36 = load i32, i32* %5, align 4
  %37 = sext i32 %36 to i64
  %38 = getelementptr inbounds i8, i8* %35, i64 %37
  %39 = load i8, i8* %38, align 1
  %40 = load [6 x i8]*, [6 x i8]** %10, align 8
  %41 = load i32, i32* %4, align 4
  %42 = sext i32 %41 to i64
  %43 = getelementptr inbounds [6 x i8], [6 x i8]* %40, i64 %42
  %44 = getelementptr inbounds [6 x i8], [6 x i8]* %43, i64 0, i64 0
  %45 = load i32, i32* %5, align 4
  %46 = sext i32 %45 to i64
  %47 = getelementptr inbounds i8, i8* %44, i64 %46
  store i8 %39, i8* %47, align 1
  br label %48

48:                                               ; preds = %31
  %49 = load i32, i32* %5, align 4
  %50 = add nsw i32 %49, 1
  store i32 %50, i32* %5, align 4
  br label %27

51:                                               ; preds = %27
  %52 = load [6 x i8]*, [6 x i8]** %10, align 8
  %53 = load i32, i32* %4, align 4
  %54 = sext i32 %53 to i64
  %55 = getelementptr inbounds [6 x i8], [6 x i8]* %52, i64 %54
  %56 = getelementptr inbounds [6 x i8], [6 x i8]* %55, i64 0, i64 0
  %57 = load i32, i32* %5, align 4
  %58 = sext i32 %57 to i64
  %59 = getelementptr inbounds i8, i8* %56, i64 %58
  store i8 0, i8* %59, align 1
  br label %60

60:                                               ; preds = %51
  %61 = load i32, i32* %4, align 4
  %62 = add nsw i32 %61, 1
  store i32 %62, i32* %4, align 4
  br label %19

63:                                               ; preds = %19
  store i32 0, i32* %5, align 4
  br label %64

64:                                               ; preds = %106, %63
  %65 = load i32, i32* %5, align 4
  %66 = load i32, i32* %6, align 4
  %67 = load i32, i32* %3, align 4
  %68 = sub nsw i32 %66, %67
  %69 = icmp slt i32 %65, %68
  br i1 %69, label %70, label %109

70:                                               ; preds = %64
  store i32 0, i32* %7, align 4
  %71 = load i32, i32* %5, align 4
  store i32 %71, i32* %4, align 4
  br label %72

72:                                               ; preds = %96, %70
  %73 = load i32, i32* %4, align 4
  %74 = load i32, i32* %6, align 4
  %75 = load i32, i32* %3, align 4
  %76 = sub nsw i32 %74, %75
  %77 = add nsw i32 %76, 1
  %78 = icmp slt i32 %73, %77
  br i1 %78, label %79, label %99

79:                                               ; preds = %72
  %80 = load [6 x i8]*, [6 x i8]** %10, align 8
  %81 = load i32, i32* %5, align 4
  %82 = sext i32 %81 to i64
  %83 = getelementptr inbounds [6 x i8], [6 x i8]* %80, i64 %82
  %84 = getelementptr inbounds [6 x i8], [6 x i8]* %83, i64 0, i64 0
  %85 = load [6 x i8]*, [6 x i8]** %10, align 8
  %86 = load i32, i32* %4, align 4
  %87 = sext i32 %86 to i64
  %88 = getelementptr inbounds [6 x i8], [6 x i8]* %85, i64 %87
  %89 = getelementptr inbounds [6 x i8], [6 x i8]* %88, i64 0, i64 0
  %90 = call i32 @strcmp(i8* %84, i8* %89) #3
  %91 = icmp eq i32 %90, 0
  br i1 %91, label %92, label %95

92:                                               ; preds = %79
  %93 = load i32, i32* %7, align 4
  %94 = add nsw i32 %93, 1
  store i32 %94, i32* %7, align 4
  br label %95

95:                                               ; preds = %92, %79
  br label %96

96:                                               ; preds = %95
  %97 = load i32, i32* %4, align 4
  %98 = add nsw i32 %97, 1
  store i32 %98, i32* %4, align 4
  br label %72

99:                                               ; preds = %72
  %100 = load i32, i32* %7, align 4
  %101 = load i32, i32* %8, align 4
  %102 = icmp sgt i32 %100, %101
  br i1 %102, label %103, label %105

103:                                              ; preds = %99
  %104 = load i32, i32* %7, align 4
  store i32 %104, i32* %8, align 4
  br label %105

105:                                              ; preds = %103, %99
  br label %106

106:                                              ; preds = %105
  %107 = load i32, i32* %5, align 4
  %108 = add nsw i32 %107, 1
  store i32 %108, i32* %5, align 4
  br label %64

109:                                              ; preds = %64
  %110 = load i32, i32* %8, align 4
  %111 = icmp eq i32 %110, 1
  br i1 %111, label %112, label %114

112:                                              ; preds = %109
  %113 = call i32 (i8*, ...) @printf(i8* getelementptr inbounds ([3 x i8], [3 x i8]* @.str.2, i64 0, i64 0))
  br label %168

114:                                              ; preds = %109
  %115 = load i32, i32* %8, align 4
  %116 = call i32 (i8*, ...) @printf(i8* getelementptr inbounds ([4 x i8], [4 x i8]* @.str.3, i64 0, i64 0), i32 %115)
  store i32 0, i32* %5, align 4
  br label %117

117:                                              ; preds = %164, %114
  %118 = load i32, i32* %5, align 4
  %119 = load i32, i32* %6, align 4
  %120 = load i32, i32* %3, align 4
  %121 = sub nsw i32 %119, %120
  %122 = icmp slt i32 %118, %121
  br i1 %122, label %123, label %167

123:                                              ; preds = %117
  store i32 0, i32* %7, align 4
  %124 = load i32, i32* %5, align 4
  store i32 %124, i32* %4, align 4
  br label %125

125:                                              ; preds = %149, %123
  %126 = load i32, i32* %4, align 4
  %127 = load i32, i32* %6, align 4
  %128 = load i32, i32* %3, align 4
  %129 = sub nsw i32 %127, %128
  %130 = add nsw i32 %129, 1
  %131 = icmp slt i32 %126, %130
  br i1 %131, label %132, label %152

132:                                              ; preds = %125
  %133 = load [6 x i8]*, [6 x i8]** %10, align 8
  %134 = load i32, i32* %5, align 4
  %135 = sext i32 %134 to i64
  %136 = getelementptr inbounds [6 x i8], [6 x i8]* %133, i64 %135
  %137 = getelementptr inbounds [6 x i8], [6 x i8]* %136, i64 0, i64 0
  %138 = load [6 x i8]*, [6 x i8]** %10, align 8
  %139 = load i32, i32* %4, align 4
  %140 = sext i32 %139 to i64
  %141 = getelementptr inbounds [6 x i8], [6 x i8]* %138, i64 %140
  %142 = getelementptr inbounds [6 x i8], [6 x i8]* %141, i64 0, i64 0
  %143 = call i32 @strcmp(i8* %137, i8* %142) #3
  %144 = icmp eq i32 %143, 0
  br i1 %144, label %145, label %148

145:                                              ; preds = %132
  %146 = load i32, i32* %7, align 4
  %147 = add nsw i32 %146, 1
  store i32 %147, i32* %7, align 4
  br label %148

148:                                              ; preds = %145, %132
  br label %149

149:                                              ; preds = %148
  %150 = load i32, i32* %4, align 4
  %151 = add nsw i32 %150, 1
  store i32 %151, i32* %4, align 4
  br label %125

152:                                              ; preds = %125
  %153 = load i32, i32* %7, align 4
  %154 = load i32, i32* %8, align 4
  %155 = icmp eq i32 %153, %154
  br i1 %155, label %156, label %163

156:                                              ; preds = %152
  %157 = load [6 x i8]*, [6 x i8]** %10, align 8
  %158 = load i32, i32* %5, align 4
  %159 = sext i32 %158 to i64
  %160 = getelementptr inbounds [6 x i8], [6 x i8]* %157, i64 %159
  %161 = getelementptr inbounds [6 x i8], [6 x i8]* %160, i64 0, i64 0
  %162 = call i32 (i8*, ...) @printf(i8* getelementptr inbounds ([4 x i8], [4 x i8]* @.str.4, i64 0, i64 0), i8* %161)
  br label %163

163:                                              ; preds = %156, %152
  br label %164

164:                                              ; preds = %163
  %165 = load i32, i32* %5, align 4
  %166 = add nsw i32 %165, 1
  store i32 %166, i32* %5, align 4
  br label %117

167:                                              ; preds = %117
  br label %168

168:                                              ; preds = %167, %112
  ret void
}

declare dso_local i32 @__isoc99_scanf(i8*, ...) #1

; Function Attrs: nounwind readonly
declare dso_local i64 @strlen(i8*) #2

; Function Attrs: nounwind readonly
declare dso_local i32 @strcmp(i8*, i8*) #2

declare dso_local i32 @printf(i8*, ...) #1


!llvm.module.flags = !{!0}
!llvm.ident = !{!1}

!0 = !{i32 1, !"wchar_size", i32 4}
!1 = !{!"clang version 10.0.0-4ubuntu1 "}
